target datalayout = "e-m:e-p270:32:32-p271:32:32-p272:64:64-i64:64-i128:128-f80:128-n8:16:32:64-S128"
target triple = "x86_64-pc-linux-gnu"

%struct.option = type { i32, i32, ptr, ptr, ptr, ptr, i32, ptr, i64, ptr, i64, ptr }

@.str.113 = private unnamed_addr constant [29 x i8] c"--no-schedule is not allowed\00", align 1
@.str.114 = private unnamed_addr constant [38 x i8] c"unrecognized --schedule argument '%s'\00", align 1
@.str.115 = private unnamed_addr constant [7 x i8] c"hourly\00", align 1
@.str.116 = private unnamed_addr constant [6 x i8] c"daily\00", align 1
@.str.117 = private unnamed_addr constant [7 x i8] c"weekly\00", align 1

; Function Attrs: nounwind uwtable
define internal i32 @parse_schedule(ptr noundef %0) #0 {
  %2 = alloca i32, align 4
  %3 = alloca ptr, align 8
  store ptr %0, ptr %3, align 8, !tbaa !11
  %4 = load ptr, ptr %3, align 8, !tbaa !11
  %5 = icmp ne ptr %4, null
  br i1 %5, label %7, label %6

6:                                                ; preds = %1
  store i32 0, ptr %2, align 4
  br label %23

7:                                                ; preds = %1
  %8 = load ptr, ptr %3, align 8, !tbaa !11
  %9 = call i32 @strcasecmp(ptr noundef %8, ptr noundef @.str.115) #13
  %10 = icmp ne i32 %9, 0
  br i1 %10, label %12, label %11

11:                                               ; preds = %7
  store i32 3, ptr %2, align 4
  br label %23

12:                                               ; preds = %7
  %13 = load ptr, ptr %3, align 8, !tbaa !11
  %14 = call i32 @strcasecmp(ptr noundef %13, ptr noundef @.str.116) #13
  %15 = icmp ne i32 %14, 0
  br i1 %15, label %17, label %16

16:                                               ; preds = %12
  store i32 2, ptr %2, align 4
  br label %23

17:                                               ; preds = %12
  %18 = load ptr, ptr %3, align 8, !tbaa !11
  %19 = call i32 @strcasecmp(ptr noundef %18, ptr noundef @.str.117) #13
  %20 = icmp ne i32 %19, 0
  br i1 %20, label %22, label %21

21:                                               ; preds = %17
  store i32 1, ptr %2, align 4
  br label %23

22:                                               ; preds = %17
  store i32 0, ptr %2, align 4
  br label %23

23:                                               ; preds = %22, %21, %16, %11, %6
  %24 = load i32, ptr %2, align 4
  ret i32 %24
}

; Function Attrs: nounwind uwtable
define internal i32 @maintenance_opt_schedule(ptr noundef %0, ptr noundef %1, i32 noundef %2) #0 {
  %4 = alloca ptr, align 8
  %5 = alloca ptr, align 8
  %6 = alloca i32, align 4
  %7 = alloca ptr, align 8
  store ptr %0, ptr %4, align 8, !tbaa !149
  store ptr %1, ptr %5, align 8, !tbaa !11
  store i32 %2, ptr %6, align 4, !tbaa !4
  call void @llvm.lifetime.start.p0(i64 8, ptr %7) #11
  %8 = load ptr, ptr %4, align 8, !tbaa !149
  %9 = getelementptr inbounds nuw %struct.option, ptr %8, i32 0, i32 3
  %10 = load ptr, ptr %9, align 8, !tbaa !38
  store ptr %10, ptr %7, align 8, !tbaa !54
  %11 = load i32, ptr %6, align 4, !tbaa !4
  %12 = icmp ne i32 %11, 0
  br i1 %12, label %13, label %15

13:                                               ; preds = %3
  %14 = call ptr @_(ptr noundef @.str.113)
  call void (ptr, ...) @die(ptr noundef %14) #12
  unreachable

15:                                               ; preds = %3
  %16 = load ptr, ptr %5, align 8, !tbaa !11
  %17 = call i32 @parse_schedule(ptr noundef %16)
  %18 = load ptr, ptr %7, align 8, !tbaa !54
  store i32 %17, ptr %18, align 4, !tbaa !4
  %19 = load ptr, ptr %7, align 8, !tbaa !54
  %20 = load i32, ptr %19, align 4, !tbaa !4
  %21 = icmp ne i32 %20, 0
  br i1 %21, label %25, label %22

22:                                               ; preds = %15
  %23 = call ptr @_(ptr noundef @.str.114)
  %24 = load ptr, ptr %5, align 8, !tbaa !11
  call void (ptr, ...) @die(ptr noundef %23, ptr noundef %24) #12
  unreachable

25:                                               ; preds = %15
  call void @llvm.lifetime.end.p0(i64 8, ptr %7) #11
  ret i32 0
}