; Function Attrs: nounwind uwtable
define internal noundef i32 @maintenance_opt_schedule(ptr noundef readonly captures(none) %0, ptr noundef %1, i32 noundef %2) #0 {
  %.not = icmp eq i32 %2, 0
  br i1 %.not, label %6, label %4

4:                                                ; preds = %3
  %5 = tail call fastcc ptr @_(ptr noundef nonnull @.str.113)
  tail call void (ptr, ...) @die(ptr noundef %5) #22
  unreachable

6:                                                ; preds = %3
  %7 = getelementptr inbounds nuw i8, ptr %0, i64 16
  %8 = load ptr, ptr %7, align 8, !tbaa !31
  %.not.i = icmp eq ptr %1, null
  br i1 %.not.i, label %parse_schedule.exit.thread8, label %9

parse_schedule.exit.thread8:                      ; preds = %6
  store i32 0, ptr %8, align 4, !tbaa !4
  br label %14

9:                                                ; preds = %6
  %10 = tail call i32 @strcasecmp(ptr noundef nonnull readonly %1, ptr noundef nonnull @.str.115) #25
  %.not5.i = icmp eq i32 %10, 0
  br i1 %.not5.i, label %parse_schedule.exit.thread, label %11

11:                                               ; preds = %9
  %12 = tail call i32 @strcasecmp(ptr noundef nonnull readonly %1, ptr noundef nonnull @.str.116) #25
  %.not6.i = icmp eq i32 %12, 0
  br i1 %.not6.i, label %parse_schedule.exit.thread, label %parse_schedule.exit

parse_schedule.exit.thread:                       ; preds = %9, %11
  %.0.i.ph = phi i32 [ 2, %11 ], [ 3, %9 ]
  store i32 %.0.i.ph, ptr %8, align 4, !tbaa !4
  br label %16

parse_schedule.exit:                              ; preds = %11
  %13 = tail call i32 @strcasecmp(ptr noundef nonnull readonly %1, ptr noundef nonnull @.str.117) #25
  %.not7.i = icmp eq i32 %13, 0
  %..i = zext i1 %.not7.i to i32
  store i32 %..i, ptr %8, align 4, !tbaa !4
  br i1 %.not7.i, label %16, label %14

14:                                               ; preds = %parse_schedule.exit.thread8, %parse_schedule.exit
  %15 = tail call fastcc ptr @_(ptr noundef nonnull @.str.114)
  tail call void (ptr, ...) @die(ptr noundef %15, ptr noundef %1) #22
  unreachable

16:                                               ; preds = %parse_schedule.exit.thread, %parse_schedule.exit
  ret i32 0
}